target datalayout = "e-m:e-p270:32:32-p271:32:32-p272:64:64-i64:64-i128:128-f80:128-n8:16:32:64-S128"
target triple = "x86_64-pc-linux-gnu"

%struct.darktable_t = type { %struct.dt_codepath_t, i32, i32, ptr, ptr, ptr, ptr, ptr, ptr, ptr, ptr, ptr, ptr, ptr, ptr, ptr, ptr, ptr, ptr, ptr, ptr, ptr, ptr, ptr, ptr, ptr, ptr, ptr, ptr, ptr, [64 x %struct.dt_pthread_mutex_t], %struct.dt_pthread_mutex_t, %struct.dt_pthread_mutex_t, %struct.dt_pthread_mutex_t, %struct.dt_pthread_mutex_t, %struct.dt_pthread_mutex_t, ptr, ptr, ptr, ptr, ptr, ptr, ptr, ptr, ptr, ptr, ptr, ptr, ptr, %struct.dt_lua_state_t, ptr, double, ptr, i32, [47 x i32], i32, i32, ptr, ptr, %struct.dt_sys_resources_t, %struct.dt_backthumb_t, %struct.dt_gimp_t }
%struct.dt_codepath_t = type { i8, [3 x i8] }
%struct.dt_pthread_mutex_t = type { %union.pthread_mutex_t }
%union.pthread_mutex_t = type { %struct.__pthread_mutex_s }
%struct.__pthread_mutex_s = type { i32, i32, i32, i32, i32, i16, i16, %struct.__pthread_internal_list }
%struct.__pthread_internal_list = type { ptr, ptr }
%struct.dt_lua_state_t = type { i32 }
%struct.dt_sys_resources_t = type { i64, i64, ptr, ptr, i32 }
%struct.dt_backthumb_t = type { double, double, i32, i32, i32, i32 }
%struct.dt_gimp_t = type { i32, ptr, ptr, i32, i32 }
%struct.dt_datetime_t = type { i32, i32, i32, i32, i32, i32, i32 }

@darktable = external global %struct.darktable_t, align 8

; Function Attrs: nounwind uwtable
define i32 @_datetime_gdatetime_to_numbers(ptr noundef %0, ptr noundef %1) #0 {
  %3 = alloca i32, align 4
  %4 = alloca ptr, align 8
  %5 = alloca ptr, align 8
  store ptr %0, ptr %4, align 8, !tbaa !49
  store ptr %1, ptr %5, align 8, !tbaa !51
  %6 = load ptr, ptr %5, align 8, !tbaa !51
  %7 = icmp ne ptr %6, null
  br i1 %7, label %8, label %40

8:                                                ; preds = %2
  %9 = load ptr, ptr %5, align 8, !tbaa !51
  %10 = call i32 @g_date_time_get_year(ptr noundef %9)
  %11 = load ptr, ptr %4, align 8, !tbaa !49
  %12 = getelementptr inbounds nuw %struct.dt_datetime_t, ptr %11, i32 0, i32 0
  store i32 %10, ptr %12, align 4, !tbaa !52
  %13 = load ptr, ptr %5, align 8, !tbaa !51
  %14 = call i32 @g_date_time_get_month(ptr noundef %13)
  %15 = load ptr, ptr %4, align 8, !tbaa !49
  %16 = getelementptr inbounds nuw %struct.dt_datetime_t, ptr %15, i32 0, i32 1
  store i32 %14, ptr %16, align 4, !tbaa !54
  %17 = load ptr, ptr %5, align 8, !tbaa !51
  %18 = call i32 @g_date_time_get_day_of_month(ptr noundef %17)
  %19 = load ptr, ptr %4, align 8, !tbaa !49
  %20 = getelementptr inbounds nuw %struct.dt_datetime_t, ptr %19, i32 0, i32 2
  store i32 %18, ptr %20, align 4, !tbaa !55
  %21 = load ptr, ptr %5, align 8, !tbaa !51
  %22 = call i32 @g_date_time_get_hour(ptr noundef %21)
  %23 = load ptr, ptr %4, align 8, !tbaa !49
  %24 = getelementptr inbounds nuw %struct.dt_datetime_t, ptr %23, i32 0, i32 3
  store i32 %22, ptr %24, align 4, !tbaa !56
  %25 = load ptr, ptr %5, align 8, !tbaa !51
  %26 = call i32 @g_date_time_get_minute(ptr noundef %25)
  %27 = load ptr, ptr %4, align 8, !tbaa !49
  %28 = getelementptr inbounds nuw %struct.dt_datetime_t, ptr %27, i32 0, i32 4
  store i32 %26, ptr %28, align 4, !tbaa !57
  %29 = load ptr, ptr %5, align 8, !tbaa !51
  %30 = call i32 @g_date_time_get_second(ptr noundef %29)
  %31 = load ptr, ptr %4, align 8, !tbaa !49
  %32 = getelementptr inbounds nuw %struct.dt_datetime_t, ptr %31, i32 0, i32 5
  store i32 %30, ptr %32, align 4, !tbaa !58
  %33 = load ptr, ptr %5, align 8, !tbaa !51
  %34 = call i32 @g_date_time_get_microsecond(ptr noundef %33)
  %35 = sitofp i32 %34 to double
  %36 = fmul reassoc nsz arcp contract afn double %35, 1.000000e-03
  %37 = fptosi double %36 to i32
  %38 = load ptr, ptr %4, align 8, !tbaa !49
  %39 = getelementptr inbounds nuw %struct.dt_datetime_t, ptr %38, i32 0, i32 6
  store i32 %37, ptr %39, align 4, !tbaa !59
  store i32 1, ptr %3, align 4
  br label %41

40:                                               ; preds = %2
  store i32 0, ptr %3, align 4
  br label %41

41:                                               ; preds = %40, %8
  %42 = load i32, ptr %3, align 4
  ret i32 %42
}

; Function Attrs: nounwind uwtable
define i32 @dt_datetime_gtimespan_to_numbers(ptr noundef %0, i64 noundef %1) #0 {
  %3 = alloca i32, align 4
  %4 = alloca ptr, align 8
  %5 = alloca i64, align 8
  %6 = alloca ptr, align 8
  %7 = alloca i32, align 4
  %8 = alloca i32, align 4
  store ptr %0, ptr %4, align 8, !tbaa !49
  store i64 %1, ptr %5, align 8, !tbaa !67
  call void @llvm.lifetime.start.p0(i64 8, ptr %6) #7
  %9 = load ptr, ptr getelementptr inbounds nuw (%struct.darktable_t, ptr @darktable, i32 0, i32 58), align 8, !tbaa !48
  %10 = load i64, ptr %5, align 8, !tbaa !67
  %11 = call ptr @g_date_time_add(ptr noundef %9, i64 noundef %10)
  store ptr %11, ptr %6, align 8, !tbaa !51
  %12 = load ptr, ptr %6, align 8, !tbaa !51
  %13 = icmp ne ptr %12, null
  br i1 %13, label %14, label %20

14:                                               ; preds = %2
  call void @llvm.lifetime.start.p0(i64 4, ptr %7) #7
  %15 = load ptr, ptr %4, align 8, !tbaa !49
  %16 = load ptr, ptr %6, align 8, !tbaa !51
  %17 = call i32 @_datetime_gdatetime_to_numbers(ptr noundef %15, ptr noundef %16)
  store i32 %17, ptr %7, align 4, !tbaa !62
  %18 = load ptr, ptr %6, align 8, !tbaa !51
  call void @g_date_time_unref(ptr noundef %18)
  %19 = load i32, ptr %7, align 4, !tbaa !62
  store i32 %19, ptr %3, align 4
  store i32 1, ptr %8, align 4
  call void @llvm.lifetime.end.p0(i64 4, ptr %7) #7
  br label %21

20:                                               ; preds = %2
  store i32 0, ptr %3, align 4
  store i32 1, ptr %8, align 4
  br label %21

21:                                               ; preds = %20, %14
  call void @llvm.lifetime.end.p0(i64 8, ptr %6) #7
  %22 = load i32, ptr %3, align 4
  ret i32 %22
}