; Function Attrs: nounwind uwtable
define range(i32 0, 2) i32 @dt_datetime_gtimespan_to_numbers(ptr noundef writeonly captures(none) %0, i64 noundef %1) local_unnamed_addr #0 {
  %3 = load ptr, ptr getelementptr inbounds nuw (i8, ptr @darktable, i64 3336), align 8, !tbaa !48
  %4 = tail call ptr @g_date_time_add(ptr noundef %3, i64 noundef %1) #7
  %.not = icmp eq ptr %4, null
  br i1 %.not, label %21, label %_datetime_gdatetime_to_numbers.exit

_datetime_gdatetime_to_numbers.exit:              ; preds = %2
  %5 = tail call i32 @g_date_time_get_year(ptr noundef nonnull %4) #7
  store i32 %5, ptr %0, align 4, !tbaa !49
  %6 = tail call i32 @g_date_time_get_month(ptr noundef nonnull %4) #7
  %7 = getelementptr inbounds nuw i8, ptr %0, i64 4
  store i32 %6, ptr %7, align 4, !tbaa !51
  %8 = tail call i32 @g_date_time_get_day_of_month(ptr noundef nonnull %4) #7
  %9 = getelementptr inbounds nuw i8, ptr %0, i64 8
  store i32 %8, ptr %9, align 4, !tbaa !52
  %10 = tail call i32 @g_date_time_get_hour(ptr noundef nonnull %4) #7
  %11 = getelementptr inbounds nuw i8, ptr %0, i64 12
  store i32 %10, ptr %11, align 4, !tbaa !53
  %12 = tail call i32 @g_date_time_get_minute(ptr noundef nonnull %4) #7
  %13 = getelementptr inbounds nuw i8, ptr %0, i64 16
  store i32 %12, ptr %13, align 4, !tbaa !54
  %14 = tail call i32 @g_date_time_get_second(ptr noundef nonnull %4) #7
  %15 = getelementptr inbounds nuw i8, ptr %0, i64 20
  store i32 %14, ptr %15, align 4, !tbaa !55
  %16 = tail call i32 @g_date_time_get_microsecond(ptr noundef nonnull %4) #7
  %17 = sitofp i32 %16 to double
  %18 = fmul reassoc nsz arcp contract afn double %17, 1.000000e-03
  %19 = fptosi double %18 to i32
  %20 = getelementptr inbounds nuw i8, ptr %0, i64 24
  store i32 %19, ptr %20, align 4, !tbaa !56
  tail call void @g_date_time_unref(ptr noundef nonnull %4) #7
  br label %21

21:                                               ; preds = %2, %_datetime_gdatetime_to_numbers.exit
  %.0 = phi i32 [ 1, %_datetime_gdatetime_to_numbers.exit ], [ 0, %2 ]
  ret i32 %.0
}